target datalayout = "e-m:e-p270:32:32-p271:32:32-p272:64:64-i64:64-i128:128-f80:128-n8:16:32:64-S128"
target triple = "x86_64-pc-linux-gnu"

%struct.AVRational = type { i32, i32 }

; Function Attrs: nounwind willreturn memory(none) uwtable
define i64 @av_rescale_q_rnd(i64 noundef %0, i64 %1, i64 %2, i32 noundef %3) #0 {
  %5 = alloca %struct.AVRational, align 4
  %6 = alloca %struct.AVRational, align 4
  %7 = alloca i64, align 8
  %8 = alloca i32, align 4
  %9 = alloca i64, align 8
  %10 = alloca i64, align 8
  store i64 %1, ptr %5, align 4
  store i64 %2, ptr %6, align 4
  store i64 %0, ptr %7, align 8, !tbaa !4
  store i32 %3, ptr %8, align 4, !tbaa !8
  call void @llvm.lifetime.start.p0(i64 8, ptr %9) #11
  %11 = getelementptr inbounds nuw %struct.AVRational, ptr %5, i32 0, i32 0
  %12 = load i32, ptr %11, align 4, !tbaa !16
  %13 = sext i32 %12 to i64
  %14 = getelementptr inbounds nuw %struct.AVRational, ptr %6, i32 0, i32 1
  %15 = load i32, ptr %14, align 4, !tbaa !18
  %16 = sext i32 %15 to i64
  %17 = mul nsw i64 %13, %16
  store i64 %17, ptr %9, align 8, !tbaa !4
  call void @llvm.lifetime.start.p0(i64 8, ptr %10) #11
  %18 = getelementptr inbounds nuw %struct.AVRational, ptr %6, i32 0, i32 0
  %19 = load i32, ptr %18, align 4, !tbaa !16
  %20 = sext i32 %19 to i64
  %21 = getelementptr inbounds nuw %struct.AVRational, ptr %5, i32 0, i32 1
  %22 = load i32, ptr %21, align 4, !tbaa !18
  %23 = sext i32 %22 to i64
  %24 = mul nsw i64 %20, %23
  store i64 %24, ptr %10, align 8, !tbaa !4
  %25 = load i64, ptr %7, align 8, !tbaa !4
  %26 = load i64, ptr %9, align 8, !tbaa !4
  %27 = load i64, ptr %10, align 8, !tbaa !4
  %28 = load i32, ptr %8, align 4, !tbaa !8
  %29 = call i64 @av_rescale_rnd(i64 noundef %25, i64 noundef %26, i64 noundef %27, i32 noundef %28) #12
  call void @llvm.lifetime.end.p0(i64 8, ptr %10) #11
  call void @llvm.lifetime.end.p0(i64 8, ptr %9) #11
  ret i64 %29
}

; Function Attrs: nounwind willreturn memory(none) uwtable
define i64 @av_rescale_q(i64 noundef %0, i64 %1, i64 %2) #0 {
  %4 = alloca %struct.AVRational, align 4
  %5 = alloca %struct.AVRational, align 4
  %6 = alloca i64, align 8
  store i64 %1, ptr %4, align 4
  store i64 %2, ptr %5, align 4
  store i64 %0, ptr %6, align 8, !tbaa !4
  %7 = load i64, ptr %6, align 8, !tbaa !4
  %8 = load i64, ptr %4, align 4
  %9 = load i64, ptr %5, align 4
  %10 = call i64 @av_rescale_q_rnd(i64 noundef %7, i64 %8, i64 %9, i32 noundef 5) #12
  ret i64 %10
}