; Function Attrs: mustprogress nofree nosync nounwind willreturn memory(none) uwtable
define i64 @av_rescale_q(i64 noundef %0, i64 %1, i64 %2) local_unnamed_addr #2 {
  %sext.i = shl i64 %1, 32
  %4 = ashr exact i64 %sext.i, 32
  %5 = ashr i64 %2, 32
  %6 = mul nsw i64 %4, %5
  %sext7.i = shl i64 %2, 32
  %7 = ashr exact i64 %sext7.i, 32
  %8 = ashr i64 %1, 32
  %9 = mul nsw i64 %7, %8
  %10 = tail call i64 @av_rescale_rnd(i64 noundef %0, i64 noundef %6, i64 noundef %9, i32 noundef 5) #10
  ret i64 %10
}